target datalayout = "e-m:e-p270:32:32-p271:32:32-p272:64:64-i64:64-i128:128-f80:128-n8:16:32:64-S128"
target triple = "x86_64-pc-linux-gnu"

%struct.ident_t = type { i32, i32, i32, i32, ptr }
%class.SparseMatrix = type { i8, i32, i32, ptr, ptr }

@1 = private unnamed_addr constant %struct.ident_t { i32 0, i32 514, i32 0, i32 22, ptr @0 }, align 8

; Function Attrs: norecurse nounwind uwtable
define internal void @_ZNK12SparseMatrixIfE21MultiplyAndAddAverageIfEEvPKT_PS2_i.omp_outlined.105(ptr noalias noundef %0, ptr noalias noundef %1, ptr noundef %2, ptr noundef nonnull align 8 dereferenceable(8) %3, ptr noundef nonnull align 4 dereferenceable(4) %4) #17 {
  %6 = alloca ptr, align 8
  %7 = alloca ptr, align 8
  %8 = alloca ptr, align 8
  %9 = alloca ptr, align 8
  %10 = alloca ptr, align 8
  %11 = alloca i32, align 4
  %12 = alloca i32, align 4
  %13 = alloca i32, align 4
  %14 = alloca i32, align 4
  %15 = alloca i32, align 4
  %16 = alloca i32, align 4
  %17 = alloca i32, align 4
  %18 = alloca i32, align 4
  %19 = alloca i32, align 4
  store ptr %0, ptr %6, align 8
  store ptr %1, ptr %7, align 8
  store ptr %2, ptr %8, align 8
  store ptr %3, ptr %9, align 8
  store ptr %4, ptr %10, align 8
  %20 = load ptr, ptr %8, align 8
  %21 = load ptr, ptr %9, align 8
  %22 = load ptr, ptr %10, align 8
  %23 = getelementptr inbounds %class.SparseMatrix, ptr %20, i32 0, i32 2
  %24 = load i32, ptr %23, align 8
  store i32 %24, ptr %12, align 4
  %25 = load i32, ptr %12, align 4
  %26 = sub nsw i32 %25, 0
  %27 = sdiv i32 %26, 1
  %28 = sub nsw i32 %27, 1
  store i32 %28, ptr %13, align 4
  store i32 0, ptr %14, align 4
  %29 = load i32, ptr %12, align 4
  %30 = icmp slt i32 0, %29
  br i1 %30, label %31, label %77

31:                                               ; preds = %5
  store i32 0, ptr %15, align 4
  %32 = load i32, ptr %13, align 4
  store i32 %32, ptr %16, align 4
  store i32 1, ptr %17, align 4
  store i32 0, ptr %18, align 4
  %33 = load ptr, ptr %6, align 8
  %34 = load i32, ptr %33, align 4
  call void @__kmpc_for_static_init_4(ptr @1, i32 %34, i32 34, ptr %18, ptr %15, ptr %16, ptr %17, i32 1, i32 1)
  %35 = load i32, ptr %16, align 4
  %36 = load i32, ptr %13, align 4
  %37 = icmp sgt i32 %35, %36
  br i1 %37, label %38, label %40

38:                                               ; preds = %31
  %39 = load i32, ptr %13, align 4
  br label %42

40:                                               ; preds = %31
  %41 = load i32, ptr %16, align 4
  br label %42

42:                                               ; preds = %40, %38
  %43 = phi i32 [ %39, %38 ], [ %41, %40 ]
  store i32 %43, ptr %16, align 4
  %44 = load i32, ptr %15, align 4
  store i32 %44, ptr %11, align 4
  br label %45

45:                                               ; preds = %70, %42
  %46 = load i32, ptr %11, align 4
  %47 = load i32, ptr %16, align 4
  %48 = icmp sle i32 %46, %47
  br i1 %48, label %49, label %73

49:                                               ; preds = %45
  %50 = load i32, ptr %11, align 4
  %51 = mul nsw i32 %50, 1
  %52 = add nsw i32 0, %51
  store i32 %52, ptr %19, align 4
  %53 = getelementptr inbounds %class.SparseMatrix, ptr %20, i32 0, i32 3
  %54 = load ptr, ptr %53, align 8
  %55 = load i32, ptr %19, align 4
  %56 = sext i32 %55 to i64
  %57 = getelementptr inbounds i32, ptr %54, i64 %56
  %58 = load i32, ptr %57, align 4
  %59 = icmp ne i32 %58, 0
  br i1 %59, label %60, label %68

60:                                               ; preds = %49
  %61 = load float, ptr %22, align 4
  %62 = load ptr, ptr %21, align 8
  %63 = load i32, ptr %19, align 4
  %64 = sext i32 %63 to i64
  %65 = getelementptr inbounds float, ptr %62, i64 %64
  %66 = load float, ptr %65, align 4
  %67 = fadd float %66, %61
  store float %67, ptr %65, align 4
  br label %68

68:                                               ; preds = %60, %49
  br label %69

69:                                               ; preds = %68
  br label %70

70:                                               ; preds = %69
  %71 = load i32, ptr %11, align 4
  %72 = add nsw i32 %71, 1
  store i32 %72, ptr %11, align 4
  br label %45

73:                                               ; preds = %45
  br label %74

74:                                               ; preds = %73
  %75 = load ptr, ptr %6, align 8
  %76 = load i32, ptr %75, align 4
  call void @__kmpc_for_static_fini(ptr @1, i32 %76)
  br label %77

77:                                               ; preds = %74, %5
  ret void
}