; Function Attrs: norecurse nounwind uwtable
define internal void @_ZNK12SparseMatrixIfE21MultiplyAndAddAverageIfEEvPKT_PS2_i.omp_outlined.105(ptr noalias nocapture noundef readonly %0, ptr noalias nocapture readnone %1, ptr nocapture noundef readonly %2, ptr nocapture noundef nonnull readonly align 8 dereferenceable(8) %3, ptr nocapture noundef nonnull readonly align 4 dereferenceable(4) %4) #23 {
  %6 = alloca i32, align 4
  %7 = alloca i32, align 4
  %8 = alloca i32, align 4
  %9 = alloca i32, align 4
  %10 = getelementptr inbounds i8, ptr %2, i64 8
  %11 = load i32, ptr %10, align 8
  %12 = icmp sgt i32 %11, 0
  br i1 %12, label %13, label %35

13:                                               ; preds = %5
  %14 = add nsw i32 %11, -1
  store i32 0, ptr %6, align 4
  store i32 %14, ptr %7, align 4
  store i32 1, ptr %8, align 4
  store i32 0, ptr %9, align 4
  %15 = load i32, ptr %0, align 4
  call void @__kmpc_for_static_init_4(ptr nonnull @1, i32 %15, i32 34, ptr nonnull %9, ptr nonnull %6, ptr nonnull %7, ptr nonnull %8, i32 1, i32 1)
  %16 = load i32, ptr %7, align 4
  %17 = call i32 @llvm.smin.i32(i32 %16, i32 %14)
  store i32 %17, ptr %7, align 4
  %18 = load i32, ptr %6, align 4
  %.not15 = icmp sgt i32 %18, %17
  br i1 %.not15, label %._crit_edge, label %.lr.ph

.lr.ph:                                           ; preds = %13
  %19 = getelementptr inbounds i8, ptr %2, i64 16
  %20 = sext i32 %18 to i64
  br label %21

21:                                               ; preds = %.lr.ph, %32
  %22 = phi i32 [ %17, %.lr.ph ], [ %33, %32 ]
  %indvars.iv = phi i64 [ %20, %.lr.ph ], [ %indvars.iv.next, %32 ]
  %23 = load ptr, ptr %19, align 8
  %24 = getelementptr inbounds i32, ptr %23, i64 %indvars.iv
  %25 = load i32, ptr %24, align 4
  %.not14 = icmp eq i32 %25, 0
  br i1 %.not14, label %32, label %26

26:                                               ; preds = %21
  %27 = load float, ptr %4, align 4
  %28 = load ptr, ptr %3, align 8
  %29 = getelementptr inbounds float, ptr %28, i64 %indvars.iv
  %30 = load float, ptr %29, align 4
  %31 = fadd float %27, %30
  store float %31, ptr %29, align 4
  %.pre = load i32, ptr %7, align 4
  br label %32

32:                                               ; preds = %26, %21
  %33 = phi i32 [ %.pre, %26 ], [ %22, %21 ]
  %indvars.iv.next = add nsw i64 %indvars.iv, 1
  %34 = sext i32 %33 to i64
  %.not.not = icmp slt i64 %indvars.iv, %34
  br i1 %.not.not, label %21, label %._crit_edge

._crit_edge:                                      ; preds = %32, %13
  call void @__kmpc_for_static_fini(ptr nonnull @1, i32 %15)
  br label %35

35:                                               ; preds = %._crit_edge, %5
  ret void
}